target datalayout = "e-m:e-p270:32:32-p271:32:32-p272:64:64-i64:64-i128:128-f80:128-n8:16:32:64-S128"
target triple = "x86_64-pc-linux-gnu"

%struct.aiString = type { i32, [1024 x i8] }
%struct.aiMeshMorphAnim = type { %struct.aiString, i32, ptr }
%struct.aiMeshMorphKey = type <{ double, ptr, ptr, i32, [4 x i8] }>

; Function Attrs: mustprogress nounwind uwtable
define linkonce_odr hidden void @_ZN14aiMeshMorphKeyC2Ev(ptr noundef nonnull align 8 dereferenceable(28) %0) unnamed_addr #4 comdat align 2 {
  %2 = alloca ptr, align 8
  store ptr %0, ptr %2, align 8
  %3 = load ptr, ptr %2, align 8
  %4 = getelementptr inbounds nuw %struct.aiMeshMorphKey, ptr %3, i32 0, i32 0
  store double 0.000000e+00, ptr %4, align 8
  %5 = getelementptr inbounds nuw %struct.aiMeshMorphKey, ptr %3, i32 0, i32 1
  store ptr null, ptr %5, align 8
  %6 = getelementptr inbounds nuw %struct.aiMeshMorphKey, ptr %3, i32 0, i32 2
  store ptr null, ptr %6, align 8
  %7 = getelementptr inbounds nuw %struct.aiMeshMorphKey, ptr %3, i32 0, i32 3
  store i32 0, ptr %7, align 8
  ret void
}

; Function Attrs: mustprogress nounwind uwtable
define linkonce_odr hidden noundef nonnull align 4 dereferenceable(1028) ptr @_ZN8aiStringaSERKS_(ptr noundef nonnull align 4 dereferenceable(1028) %0, ptr noundef nonnull align 4 dereferenceable(1028) %1) #4 comdat align 2 {
  %3 = alloca ptr, align 8
  %4 = alloca ptr, align 8
  %5 = alloca ptr, align 8
  store ptr %0, ptr %4, align 8
  store ptr %1, ptr %5, align 8
  %6 = load ptr, ptr %4, align 8
  %7 = load ptr, ptr %5, align 8
  %8 = icmp eq ptr %6, %7
  br i1 %8, label %9, label %10

9:                                                ; preds = %2
  store ptr %6, ptr %3, align 8
  br label %35

10:                                               ; preds = %2
  %11 = load ptr, ptr %5, align 8
  %12 = getelementptr inbounds nuw %struct.aiString, ptr %11, i32 0, i32 0
  %13 = load i32, ptr %12, align 4
  %14 = getelementptr inbounds nuw %struct.aiString, ptr %6, i32 0, i32 0
  store i32 %13, ptr %14, align 4
  %15 = getelementptr inbounds nuw %struct.aiString, ptr %6, i32 0, i32 0
  %16 = load i32, ptr %15, align 4
  %17 = zext i32 %16 to i64
  %18 = icmp ugt i64 %17, 1023
  br i1 %18, label %19, label %21

19:                                               ; preds = %10
  %20 = getelementptr inbounds nuw %struct.aiString, ptr %6, i32 0, i32 0
  store i32 1023, ptr %20, align 4
  br label %21

21:                                               ; preds = %19, %10
  %22 = getelementptr inbounds nuw %struct.aiString, ptr %6, i32 0, i32 1
  %23 = getelementptr inbounds [1024 x i8], ptr %22, i64 0, i64 0
  %24 = load ptr, ptr %5, align 8
  %25 = getelementptr inbounds nuw %struct.aiString, ptr %24, i32 0, i32 1
  %26 = getelementptr inbounds [1024 x i8], ptr %25, i64 0, i64 0
  %27 = getelementptr inbounds nuw %struct.aiString, ptr %6, i32 0, i32 0
  %28 = load i32, ptr %27, align 4
  %29 = zext i32 %28 to i64
  call void @llvm.memcpy.p0.p0.i64(ptr align 4 %23, ptr align 4 %26, i64 %29, i1 false)
  %30 = getelementptr inbounds nuw %struct.aiString, ptr %6, i32 0, i32 1
  %31 = getelementptr inbounds nuw %struct.aiString, ptr %6, i32 0, i32 0
  %32 = load i32, ptr %31, align 4
  %33 = zext i32 %32 to i64
  %34 = getelementptr inbounds nuw [1024 x i8], ptr %30, i64 0, i64 %33
  store i8 0, ptr %34, align 1
  store ptr %6, ptr %3, align 8
  br label %35

35:                                               ; preds = %21, %9
  %36 = load ptr, ptr %3, align 8
  ret ptr %36
}

; Function Attrs: mustprogress nounwind uwtable
define linkonce_odr hidden void @_ZN8aiStringC2Ev(ptr noundef nonnull align 4 dereferenceable(1028) %0) unnamed_addr #4 comdat align 2 {
  %2 = alloca ptr, align 8
  store ptr %0, ptr %2, align 8
  %3 = load ptr, ptr %2, align 8
  %4 = getelementptr inbounds nuw %struct.aiString, ptr %3, i32 0, i32 0
  store i32 0, ptr %4, align 4
  %5 = getelementptr inbounds nuw %struct.aiString, ptr %3, i32 0, i32 1
  call void @llvm.memset.p0.i64(ptr align 4 %5, i8 0, i64 1024, i1 false)
  ret void
}

; Function Attrs: inlinehint mustprogress uwtable
define linkonce_odr hidden void @_ZN6Assimp12GetArrayCopyI14aiMeshMorphKeyEEvRPT_j(ptr noundef nonnull align 8 dereferenceable(8) %0, i32 noundef %1) #3 comdat {
  %3 = alloca ptr, align 8
  %4 = alloca i32, align 4
  %5 = alloca ptr, align 8
  store ptr %0, ptr %3, align 8
  store i32 %1, ptr %4, align 4
  %6 = load ptr, ptr %3, align 8
  %7 = load ptr, ptr %6, align 8
  %8 = icmp ne ptr %7, null
  br i1 %8, label %10, label %9

9:                                                ; preds = %2
  br label %40

10:                                               ; preds = %2
  call void @llvm.lifetime.start.p0(i64 8, ptr %5) #17
  %11 = load ptr, ptr %3, align 8
  %12 = load ptr, ptr %11, align 8
  store ptr %12, ptr %5, align 8
  %13 = load i32, ptr %4, align 4
  %14 = zext i32 %13 to i64
  %15 = call { i64, i1 } @llvm.umul.with.overflow.i64(i64 %14, i64 32)
  %16 = extractvalue { i64, i1 } %15, 1
  %17 = extractvalue { i64, i1 } %15, 0
  %18 = call { i64, i1 } @llvm.uadd.with.overflow.i64(i64 %17, i64 8)
  %19 = extractvalue { i64, i1 } %18, 1
  %20 = or i1 %16, %19
  %21 = extractvalue { i64, i1 } %18, 0
  %22 = select i1 %20, i64 -1, i64 %21
  %23 = call noalias noundef nonnull ptr @_Znam(i64 noundef %22) #19
  store i64 %14, ptr %23, align 16
  %24 = getelementptr inbounds i8, ptr %23, i64 8
  %25 = icmp eq i64 %14, 0
  br i1 %25, label %32, label %26

26:                                               ; preds = %10
  %27 = getelementptr inbounds %struct.aiMeshMorphKey, ptr %24, i64 %14
  br label %28

28:                                               ; preds = %28, %26
  %29 = phi ptr [ %24, %26 ], [ %30, %28 ]
  call void @_ZN14aiMeshMorphKeyC2Ev(ptr noundef nonnull align 8 dereferenceable(28) %29) #17
  %30 = getelementptr inbounds %struct.aiMeshMorphKey, ptr %29, i64 1
  %31 = icmp eq ptr %30, %27
  br i1 %31, label %32, label %28

32:                                               ; preds = %10, %28
  %33 = load ptr, ptr %3, align 8
  store ptr %24, ptr %33, align 8
  %34 = load ptr, ptr %3, align 8
  %35 = load ptr, ptr %34, align 8
  %36 = load ptr, ptr %5, align 8
  %37 = load i32, ptr %4, align 4
  %38 = zext i32 %37 to i64
  %39 = mul i64 32, %38
  call void @llvm.memcpy.p0.p0.i64(ptr align 8 %35, ptr align 8 %36, i64 %39, i1 false)
  call void @llvm.lifetime.end.p0(i64 8, ptr %5) #17
  br label %40

40:                                               ; preds = %32, %9
  ret void
}

; Function Attrs: inlinehint mustprogress nounwind uwtable
define linkonce_odr hidden noundef nonnull align 8 dereferenceable(1040) ptr @_ZN15aiMeshMorphAnimaSERKS_(ptr noundef nonnull align 8 dereferenceable(1040) %0, ptr noundef nonnull align 8 dereferenceable(1040) %1) #2 comdat align 2 {
  %3 = alloca ptr, align 8
  %4 = alloca ptr, align 8
  store ptr %0, ptr %3, align 8
  store ptr %1, ptr %4, align 8
  %5 = load ptr, ptr %3, align 8
  %6 = getelementptr inbounds nuw %struct.aiMeshMorphAnim, ptr %5, i32 0, i32 0
  %7 = load ptr, ptr %4, align 8
  %8 = getelementptr inbounds nuw %struct.aiMeshMorphAnim, ptr %7, i32 0, i32 0
  %9 = call noundef nonnull align 4 dereferenceable(1028) ptr @_ZN8aiStringaSERKS_(ptr noundef nonnull align 4 dereferenceable(1028) %6, ptr noundef nonnull align 4 dereferenceable(1028) %8)
  %10 = getelementptr inbounds nuw %struct.aiMeshMorphAnim, ptr %5, i32 0, i32 1
  %11 = load ptr, ptr %4, align 8
  %12 = getelementptr inbounds nuw %struct.aiMeshMorphAnim, ptr %11, i32 0, i32 1
  call void @llvm.memcpy.p0.p0.i64(ptr align 4 %10, ptr align 4 %12, i64 12, i1 false)
  ret ptr %5
}

; Function Attrs: mustprogress nounwind uwtable
define linkonce_odr hidden void @_ZN15aiMeshMorphAnimC2Ev(ptr noundef nonnull align 8 dereferenceable(1040) %0) unnamed_addr #4 comdat align 2 {
  %2 = alloca ptr, align 8
  store ptr %0, ptr %2, align 8
  %3 = load ptr, ptr %2, align 8
  %4 = getelementptr inbounds nuw %struct.aiMeshMorphAnim, ptr %3, i32 0, i32 0
  call void @_ZN8aiStringC2Ev(ptr noundef nonnull align 4 dereferenceable(1028) %4) #17
  %5 = getelementptr inbounds nuw %struct.aiMeshMorphAnim, ptr %3, i32 0, i32 1
  store i32 0, ptr %5, align 4
  %6 = getelementptr inbounds nuw %struct.aiMeshMorphAnim, ptr %3, i32 0, i32 2
  store ptr null, ptr %6, align 8
  ret void
}

; Function Attrs: mustprogress uwtable
define void @_ZN6Assimp13SceneCombiner4CopyEPP15aiMeshMorphAnimPKS1_(ptr noundef %0, ptr noundef %1) #0 align 2 {
  %3 = alloca ptr, align 8
  %4 = alloca ptr, align 8
  %5 = alloca ptr, align 8
  %6 = alloca i32, align 4
  store ptr %0, ptr %3, align 8
  store ptr %1, ptr %4, align 8
  %7 = load ptr, ptr %3, align 8
  %8 = icmp eq ptr null, %7
  br i1 %8, label %12, label %9

9:                                                ; preds = %2
  %10 = load ptr, ptr %4, align 8
  %11 = icmp eq ptr null, %10
  br i1 %11, label %12, label %13

12:                                               ; preds = %9, %2
  br label %130

13:                                               ; preds = %9
  call void @llvm.lifetime.start.p0(i64 8, ptr %5) #17
  %14 = call noalias noundef nonnull ptr @_Znwm(i64 noundef 1040) #19
  call void @_ZN15aiMeshMorphAnimC2Ev(ptr noundef nonnull align 8 dereferenceable(1040) %14) #17
  %15 = load ptr, ptr %3, align 8
  store ptr %14, ptr %15, align 8
  store ptr %14, ptr %5, align 8
  %16 = load ptr, ptr %4, align 8
  %17 = load ptr, ptr %5, align 8
  %18 = call noundef nonnull align 8 dereferenceable(1040) ptr @_ZN15aiMeshMorphAnimaSERKS_(ptr noundef nonnull align 8 dereferenceable(1040) %17, ptr noundef nonnull align 8 dereferenceable(1040) %16)
  %19 = load ptr, ptr %5, align 8
  %20 = getelementptr inbounds nuw %struct.aiMeshMorphAnim, ptr %19, i32 0, i32 2
  %21 = load ptr, ptr %5, align 8
  %22 = getelementptr inbounds nuw %struct.aiMeshMorphAnim, ptr %21, i32 0, i32 1
  %23 = load i32, ptr %22, align 4
  call void @_ZN6Assimp12GetArrayCopyI14aiMeshMorphKeyEEvRPT_j(ptr noundef nonnull align 8 dereferenceable(8) %20, i32 noundef %23)
  call void @llvm.lifetime.start.p0(i64 4, ptr %6) #17
  store i32 0, ptr %6, align 4
  br label %24

24:                                               ; preds = %126, %13
  %25 = load i32, ptr %6, align 4
  %26 = load ptr, ptr %5, align 8
  %27 = getelementptr inbounds nuw %struct.aiMeshMorphAnim, ptr %26, i32 0, i32 1
  %28 = load i32, ptr %27, align 4
  %29 = icmp ult i32 %25, %28
  br i1 %29, label %31, label %30

30:                                               ; preds = %24
  call void @llvm.lifetime.end.p0(i64 4, ptr %6) #17
  br label %129

31:                                               ; preds = %24
  %32 = load ptr, ptr %5, align 8
  %33 = getelementptr inbounds nuw %struct.aiMeshMorphAnim, ptr %32, i32 0, i32 2
  %34 = load ptr, ptr %33, align 8
  %35 = load i32, ptr %6, align 4
  %36 = zext i32 %35 to i64
  %37 = getelementptr inbounds nuw %struct.aiMeshMorphKey, ptr %34, i64 %36
  %38 = getelementptr inbounds nuw %struct.aiMeshMorphKey, ptr %37, i32 0, i32 3
  %39 = load i32, ptr %38, align 8
  %40 = zext i32 %39 to i64
  %41 = call { i64, i1 } @llvm.umul.with.overflow.i64(i64 %40, i64 4)
  %42 = extractvalue { i64, i1 } %41, 1
  %43 = extractvalue { i64, i1 } %41, 0
  %44 = select i1 %42, i64 -1, i64 %43
  %45 = call noalias noundef nonnull ptr @_Znam(i64 noundef %44) #19
  %46 = load ptr, ptr %5, align 8
  %47 = getelementptr inbounds nuw %struct.aiMeshMorphAnim, ptr %46, i32 0, i32 2
  %48 = load ptr, ptr %47, align 8
  %49 = load i32, ptr %6, align 4
  %50 = zext i32 %49 to i64
  %51 = getelementptr inbounds nuw %struct.aiMeshMorphKey, ptr %48, i64 %50
  %52 = getelementptr inbounds nuw %struct.aiMeshMorphKey, ptr %51, i32 0, i32 1
  store ptr %45, ptr %52, align 8
  %53 = load ptr, ptr %5, align 8
  %54 = getelementptr inbounds nuw %struct.aiMeshMorphAnim, ptr %53, i32 0, i32 2
  %55 = load ptr, ptr %54, align 8
  %56 = load i32, ptr %6, align 4
  %57 = zext i32 %56 to i64
  %58 = getelementptr inbounds nuw %struct.aiMeshMorphKey, ptr %55, i64 %57
  %59 = getelementptr inbounds nuw %struct.aiMeshMorphKey, ptr %58, i32 0, i32 3
  %60 = load i32, ptr %59, align 8
  %61 = zext i32 %60 to i64
  %62 = call { i64, i1 } @llvm.umul.with.overflow.i64(i64 %61, i64 8)
  %63 = extractvalue { i64, i1 } %62, 1
  %64 = extractvalue { i64, i1 } %62, 0
  %65 = select i1 %63, i64 -1, i64 %64
  %66 = call noalias noundef nonnull ptr @_Znam(i64 noundef %65) #19
  %67 = load ptr, ptr %5, align 8
  %68 = getelementptr inbounds nuw %struct.aiMeshMorphAnim, ptr %67, i32 0, i32 2
  %69 = load ptr, ptr %68, align 8
  %70 = load i32, ptr %6, align 4
  %71 = zext i32 %70 to i64
  %72 = getelementptr inbounds nuw %struct.aiMeshMorphKey, ptr %69, i64 %71
  %73 = getelementptr inbounds nuw %struct.aiMeshMorphKey, ptr %72, i32 0, i32 2
  store ptr %66, ptr %73, align 8
  %74 = load ptr, ptr %5, align 8
  %75 = getelementptr inbounds nuw %struct.aiMeshMorphAnim, ptr %74, i32 0, i32 2
  %76 = load ptr, ptr %75, align 8
  %77 = load i32, ptr %6, align 4
  %78 = zext i32 %77 to i64
  %79 = getelementptr inbounds nuw %struct.aiMeshMorphKey, ptr %76, i64 %78
  %80 = getelementptr inbounds nuw %struct.aiMeshMorphKey, ptr %79, i32 0, i32 1
  %81 = load ptr, ptr %80, align 8
  %82 = load ptr, ptr %4, align 8
  %83 = getelementptr inbounds nuw %struct.aiMeshMorphAnim, ptr %82, i32 0, i32 2
  %84 = load ptr, ptr %83, align 8
  %85 = load i32, ptr %6, align 4
  %86 = zext i32 %85 to i64
  %87 = getelementptr inbounds nuw %struct.aiMeshMorphKey, ptr %84, i64 %86
  %88 = getelementptr inbounds nuw %struct.aiMeshMorphKey, ptr %87, i32 0, i32 1
  %89 = load ptr, ptr %88, align 8
  %90 = load ptr, ptr %5, align 8
  %91 = getelementptr inbounds nuw %struct.aiMeshMorphAnim, ptr %90, i32 0, i32 2
  %92 = load ptr, ptr %91, align 8
  %93 = load i32, ptr %6, align 4
  %94 = zext i32 %93 to i64
  %95 = getelementptr inbounds nuw %struct.aiMeshMorphKey, ptr %92, i64 %94
  %96 = getelementptr inbounds nuw %struct.aiMeshMorphKey, ptr %95, i32 0, i32 3
  %97 = load i32, ptr %96, align 8
  %98 = zext i32 %97 to i64
  %99 = mul i64 %98, 4
  call void @llvm.memcpy.p0.p0.i64(ptr align 4 %81, ptr align 4 %89, i64 %99, i1 false)
  %100 = load ptr, ptr %5, align 8
  %101 = getelementptr inbounds nuw %struct.aiMeshMorphAnim, ptr %100, i32 0, i32 2
  %102 = load ptr, ptr %101, align 8
  %103 = load i32, ptr %6, align 4
  %104 = zext i32 %103 to i64
  %105 = getelementptr inbounds nuw %struct.aiMeshMorphKey, ptr %102, i64 %104
  %106 = getelementptr inbounds nuw %struct.aiMeshMorphKey, ptr %105, i32 0, i32 2
  %107 = load ptr, ptr %106, align 8
  %108 = load ptr, ptr %4, align 8
  %109 = getelementptr inbounds nuw %struct.aiMeshMorphAnim, ptr %108, i32 0, i32 2
  %110 = load ptr, ptr %109, align 8
  %111 = load i32, ptr %6, align 4
  %112 = zext i32 %111 to i64
  %113 = getelementptr inbounds nuw %struct.aiMeshMorphKey, ptr %110, i64 %112
  %114 = getelementptr inbounds nuw %struct.aiMeshMorphKey, ptr %113, i32 0, i32 2
  %115 = load ptr, ptr %114, align 8
  %116 = load ptr, ptr %5, align 8
  %117 = getelementptr inbounds nuw %struct.aiMeshMorphAnim, ptr %116, i32 0, i32 2
  %118 = load ptr, ptr %117, align 8
  %119 = load i32, ptr %6, align 4
  %120 = zext i32 %119 to i64
  %121 = getelementptr inbounds nuw %struct.aiMeshMorphKey, ptr %118, i64 %120
  %122 = getelementptr inbounds nuw %struct.aiMeshMorphKey, ptr %121, i32 0, i32 3
  %123 = load i32, ptr %122, align 8
  %124 = zext i32 %123 to i64
  %125 = mul i64 %124, 8
  call void @llvm.memcpy.p0.p0.i64(ptr align 8 %107, ptr align 8 %115, i64 %125, i1 false)
  br label %126

126:                                              ; preds = %31
  %127 = load i32, ptr %6, align 4
  %128 = add i32 %127, 1
  store i32 %128, ptr %6, align 4
  br label %24, !llvm.loop !90

129:                                              ; preds = %30
  call void @llvm.lifetime.end.p0(i64 8, ptr %5) #17
  br label %130

130:                                              ; preds = %129, %12
  ret void
}