; Function Attrs: mustprogress uwtable
define void @_ZN6Assimp13SceneCombiner4CopyEPP15aiMeshMorphAnimPKS1_(ptr noundef writeonly captures(address_is_null) %0, ptr noundef readonly captures(address) %1) local_unnamed_addr #0 align 2 {
  %3 = icmp eq ptr %0, null
  %4 = icmp eq ptr %1, null
  %or.cond = or i1 %3, %4
  br i1 %or.cond, label %.loopexit, label %5

5:                                                ; preds = %2
  %6 = tail call noalias noundef nonnull dereferenceable(1040) ptr @_Znwm(i64 noundef 1040) #22
  tail call void @llvm.memset.p0.i64(ptr noundef nonnull align 8 dereferenceable(1040) %6, i8 0, i64 1032, i1 false)
  store ptr %6, ptr %0, align 8
  %7 = icmp eq ptr %6, %1
  br i1 %7, label %_ZN15aiMeshMorphAnimaSERKS_.exit, label %8

8:                                                ; preds = %5
  %9 = load i32, ptr %1, align 4
  %spec.select.i.i = tail call i32 @llvm.umin.i32(i32 %9, i32 1023)
  store i32 %spec.select.i.i, ptr %6, align 4
  %10 = getelementptr inbounds nuw i8, ptr %6, i64 4
  %11 = getelementptr inbounds nuw i8, ptr %1, i64 4
  %12 = zext nneg i32 %spec.select.i.i to i64
  tail call void @llvm.memcpy.p0.p0.i64(ptr nonnull align 4 %10, ptr nonnull align 4 %11, i64 %12, i1 false)
  %13 = getelementptr inbounds nuw [1024 x i8], ptr %10, i64 0, i64 %12
  store i8 0, ptr %13, align 1
  br label %_ZN15aiMeshMorphAnimaSERKS_.exit

_ZN15aiMeshMorphAnimaSERKS_.exit:                 ; preds = %5, %8
  %14 = getelementptr inbounds nuw i8, ptr %6, i64 1028
  %15 = getelementptr inbounds nuw i8, ptr %1, i64 1028
  tail call void @llvm.memcpy.p0.p0.i64(ptr noundef nonnull align 4 dereferenceable(12) %14, ptr noundef nonnull align 4 dereferenceable(12) %15, i64 12, i1 false)
  %16 = getelementptr inbounds nuw i8, ptr %6, i64 1032
  %17 = load ptr, ptr %16, align 8
  %.not.i = icmp eq ptr %17, null
  %.pre = load i32, ptr %14, align 4
  br i1 %.not.i, label %_ZN6Assimp12GetArrayCopyI14aiMeshMorphKeyEEvRPT_j.exit, label %18

18:                                               ; preds = %_ZN15aiMeshMorphAnimaSERKS_.exit
  %19 = zext i32 %.pre to i64
  %20 = shl nuw nsw i64 %19, 5
  %21 = or disjoint i64 %20, 8
  %22 = tail call noalias noundef nonnull ptr @_Znam(i64 noundef %21) #22
  store i64 %19, ptr %22, align 16
  %23 = getelementptr inbounds nuw i8, ptr %22, i64 8
  %24 = icmp eq i32 %.pre, 0
  br i1 %24, label %.loopexit.i, label %25

25:                                               ; preds = %18
  %26 = getelementptr inbounds nuw %struct.aiMeshMorphKey, ptr %23, i64 %19
  br label %27

27:                                               ; preds = %27, %25
  %28 = phi ptr [ %23, %25 ], [ %29, %27 ]
  tail call void @llvm.memset.p0.i64(ptr noundef nonnull align 8 dereferenceable(28) %28, i8 0, i64 28, i1 false)
  %29 = getelementptr inbounds nuw i8, ptr %28, i64 32
  %30 = icmp eq ptr %29, %26
  br i1 %30, label %.loopexit.i, label %27

.loopexit.i:                                      ; preds = %27, %18
  store ptr %23, ptr %16, align 8
  tail call void @llvm.memcpy.p0.p0.i64(ptr nonnull align 8 %23, ptr nonnull align 8 %17, i64 %20, i1 false)
  br label %_ZN6Assimp12GetArrayCopyI14aiMeshMorphKeyEEvRPT_j.exit

_ZN6Assimp12GetArrayCopyI14aiMeshMorphKeyEEvRPT_j.exit: ; preds = %_ZN15aiMeshMorphAnimaSERKS_.exit, %.loopexit.i
  %.not = icmp eq i32 %.pre, 0
  br i1 %.not, label %.loopexit, label %.lr.ph

.lr.ph:                                           ; preds = %_ZN6Assimp12GetArrayCopyI14aiMeshMorphKeyEEvRPT_j.exit
  %31 = getelementptr inbounds nuw i8, ptr %1, i64 1032
  br label %32

32:                                               ; preds = %.lr.ph, %32
  %indvars.iv = phi i64 [ 0, %.lr.ph ], [ %indvars.iv.next, %32 ]
  %33 = load ptr, ptr %16, align 8
  %34 = getelementptr inbounds nuw %struct.aiMeshMorphKey, ptr %33, i64 %indvars.iv, i32 3
  %35 = load i32, ptr %34, align 8
  %36 = zext i32 %35 to i64
  %37 = shl nuw nsw i64 %36, 2
  %38 = tail call noalias noundef nonnull ptr @_Znam(i64 noundef %37) #22
  %39 = getelementptr inbounds nuw %struct.aiMeshMorphKey, ptr %33, i64 %indvars.iv, i32 1
  store ptr %38, ptr %39, align 8
  %40 = load ptr, ptr %16, align 8
  %41 = getelementptr inbounds nuw %struct.aiMeshMorphKey, ptr %40, i64 %indvars.iv, i32 3
  %42 = load i32, ptr %41, align 8
  %43 = zext i32 %42 to i64
  %44 = shl nuw nsw i64 %43, 3
  %45 = tail call noalias noundef nonnull ptr @_Znam(i64 noundef %44) #22
  %46 = getelementptr inbounds nuw %struct.aiMeshMorphKey, ptr %40, i64 %indvars.iv, i32 2
  store ptr %45, ptr %46, align 8
  %47 = load ptr, ptr %16, align 8
  %48 = getelementptr inbounds nuw %struct.aiMeshMorphKey, ptr %47, i64 %indvars.iv
  %49 = getelementptr inbounds nuw i8, ptr %48, i64 8
  %50 = load ptr, ptr %49, align 8
  %51 = load ptr, ptr %31, align 8
  %52 = getelementptr inbounds nuw %struct.aiMeshMorphKey, ptr %51, i64 %indvars.iv, i32 1
  %53 = load ptr, ptr %52, align 8
  %54 = getelementptr inbounds nuw i8, ptr %48, i64 24
  %55 = load i32, ptr %54, align 8
  %56 = zext i32 %55 to i64
  %57 = shl nuw nsw i64 %56, 2
  tail call void @llvm.memcpy.p0.p0.i64(ptr align 4 %50, ptr align 4 %53, i64 %57, i1 false)
  %58 = load ptr, ptr %16, align 8
  %59 = getelementptr inbounds nuw %struct.aiMeshMorphKey, ptr %58, i64 %indvars.iv
  %60 = getelementptr inbounds nuw i8, ptr %59, i64 16
  %61 = load ptr, ptr %60, align 8
  %62 = load ptr, ptr %31, align 8
  %63 = getelementptr inbounds nuw %struct.aiMeshMorphKey, ptr %62, i64 %indvars.iv, i32 2
  %64 = load ptr, ptr %63, align 8
  %65 = getelementptr inbounds nuw i8, ptr %59, i64 24
  %66 = load i32, ptr %65, align 8
  %67 = zext i32 %66 to i64
  %68 = shl nuw nsw i64 %67, 3
  tail call void @llvm.memcpy.p0.p0.i64(ptr align 8 %61, ptr align 8 %64, i64 %68, i1 false)
  %indvars.iv.next = add nuw nsw i64 %indvars.iv, 1
  %69 = load i32, ptr %14, align 4
  %70 = zext i32 %69 to i64
  %71 = icmp samesign ult i64 %indvars.iv.next, %70
  br i1 %71, label %32, label %.loopexit, !llvm.loop !45

.loopexit:                                        ; preds = %32, %_ZN6Assimp12GetArrayCopyI14aiMeshMorphKeyEEvRPT_j.exit, %2
  ret void
}